target datalayout = "e-m:e-p270:32:32-p271:32:32-p272:64:64-i64:64-i128:128-f80:128-n8:16:32:64-S128"
target triple = "x86_64-pc-linux-gnu"

%struct.ShowSpectrumContext = type { ptr, i32, i32, ptr, %struct.AVRational, %struct.AVRational, ptr, ptr, i32, i32, i32, i32, i32, i32, i32, i32, i32, float, float, i32, i32, i32, i32, ptr, ptr, ptr, ptr, i32, ptr, ptr, ptr, ptr, ptr, ptr, i32, i32, i32, double, float, float, i32, ptr, ptr, i64, i64, i64, i32, i32, i32, i32, i32, float, float, float, float, i64, ptr, i32, float, ptr, i32, i32 }
%struct.AVRational = type { i32, i32 }

@.str.11 = private unnamed_addr constant [30 x i8] c"Assertion %s failed at %s:%d\0A\00", align 1
@.str.12 = private unnamed_addr constant [2 x i8] c"0\00", align 1
@.str.13 = private unnamed_addr constant [31 x i8] c"libavfilter/avf_showspectrum.c\00", align 1

; Function Attrs: nounwind uwtable
define internal void @color_range(ptr noundef %0, i32 noundef %1, ptr noundef %2, ptr noundef %3, ptr noundef %4) #1 {
  %6 = alloca ptr, align 8
  %7 = alloca i32, align 4
  %8 = alloca ptr, align 8
  %9 = alloca ptr, align 8
  %10 = alloca ptr, align 8
  store ptr %0, ptr %6, align 8, !tbaa !22
  store i32 %1, ptr %7, align 4, !tbaa !36
  store ptr %2, ptr %8, align 8, !tbaa !128
  store ptr %3, ptr %9, align 8, !tbaa !128
  store ptr %4, ptr %10, align 8, !tbaa !128
  %11 = load ptr, ptr %6, align 8, !tbaa !22
  %12 = getelementptr inbounds nuw %struct.ShowSpectrumContext, ptr %11, i32 0, i32 13
  %13 = load i32, ptr %12, align 4, !tbaa !118
  switch i32 %13, label %52 [
    i32 0, label %14
    i32 1, label %48
  ]

14:                                               ; preds = %5
  %15 = load ptr, ptr %6, align 8, !tbaa !22
  %16 = getelementptr inbounds nuw %struct.ShowSpectrumContext, ptr %15, i32 0, i32 8
  %17 = load i32, ptr %16, align 8, !tbaa !37
  %18 = sitofp i32 %17 to float
  %19 = fdiv nsz float 2.560000e+02, %18
  %20 = load ptr, ptr %8, align 8, !tbaa !128
  store float %19, ptr %20, align 4, !tbaa !126
  %21 = load ptr, ptr %6, align 8, !tbaa !22
  %22 = getelementptr inbounds nuw %struct.ShowSpectrumContext, ptr %21, i32 0, i32 14
  %23 = load i32, ptr %22, align 8, !tbaa !171
  switch i32 %23, label %44 [
    i32 2, label %24
    i32 3, label %24
    i32 4, label %24
    i32 5, label %24
    i32 6, label %24
    i32 7, label %24
    i32 8, label %24
    i32 10, label %24
    i32 11, label %24
    i32 12, label %24
    i32 13, label %24
    i32 14, label %24
    i32 9, label %24
    i32 1, label %24
    i32 0, label %31
  ]

24:                                               ; preds = %14, %14, %14, %14, %14, %14, %14, %14, %14, %14, %14, %14, %14, %14
  %25 = load ptr, ptr %8, align 8, !tbaa !128
  %26 = load float, ptr %25, align 4, !tbaa !126
  %27 = load ptr, ptr %9, align 8, !tbaa !128
  store float %26, ptr %27, align 4, !tbaa !126
  %28 = load ptr, ptr %8, align 8, !tbaa !128
  %29 = load float, ptr %28, align 4, !tbaa !126
  %30 = load ptr, ptr %10, align 8, !tbaa !128
  store float %29, ptr %30, align 4, !tbaa !126
  br label %47

31:                                               ; preds = %14
  %32 = load ptr, ptr %8, align 8, !tbaa !128
  %33 = load float, ptr %32, align 4, !tbaa !126
  %34 = fpext nsz float %33 to double
  %35 = fmul nsz double %34, 0x400921FB54442D18
  %36 = fptrunc nsz double %35 to float
  %37 = load ptr, ptr %9, align 8, !tbaa !128
  store float %36, ptr %37, align 4, !tbaa !126
  %38 = load ptr, ptr %8, align 8, !tbaa !128
  %39 = load float, ptr %38, align 4, !tbaa !126
  %40 = fpext nsz float %39 to double
  %41 = fmul nsz double %40, 0x400921FB54442D18
  %42 = fptrunc nsz double %41 to float
  %43 = load ptr, ptr %10, align 8, !tbaa !128
  store float %42, ptr %43, align 4, !tbaa !126
  br label %47

44:                                               ; preds = %14
  br label %45

45:                                               ; preds = %44
  call void (ptr, i32, ptr, ...) @av_log(ptr noundef null, i32 noundef 0, ptr noundef @.str.11, ptr noundef @.str.12, ptr noundef @.str.13, i32 noundef 577)
  call void @abort() #16
  unreachable

46:                                               ; No predecessors!
  br label %47

47:                                               ; preds = %46, %31, %24
  br label %55

48:                                               ; preds = %5
  %49 = load ptr, ptr %8, align 8, !tbaa !128
  store float 2.560000e+02, ptr %49, align 4, !tbaa !126
  %50 = load ptr, ptr %9, align 8, !tbaa !128
  store float 2.560000e+02, ptr %50, align 4, !tbaa !126
  %51 = load ptr, ptr %10, align 8, !tbaa !128
  store float 2.560000e+02, ptr %51, align 4, !tbaa !126
  br label %55

52:                                               ; preds = %5
  br label %53

53:                                               ; preds = %52
  call void (ptr, i32, ptr, ...) @av_log(ptr noundef null, i32 noundef 0, ptr noundef @.str.11, ptr noundef @.str.12, ptr noundef @.str.13, i32 noundef 587)
  call void @abort() #16
  unreachable

54:                                               ; No predecessors!
  br label %55

55:                                               ; preds = %54, %48, %47
  %56 = load ptr, ptr %6, align 8, !tbaa !22
  %57 = getelementptr inbounds nuw %struct.ShowSpectrumContext, ptr %56, i32 0, i32 14
  %58 = load i32, ptr %57, align 8, !tbaa !171
  %59 = icmp eq i32 %58, 0
  br i1 %59, label %60, label %128

60:                                               ; preds = %55
  %61 = load ptr, ptr %6, align 8, !tbaa !22
  %62 = getelementptr inbounds nuw %struct.ShowSpectrumContext, ptr %61, i32 0, i32 8
  %63 = load i32, ptr %62, align 8, !tbaa !37
  %64 = icmp sgt i32 %63, 1
  br i1 %64, label %65, label %104

65:                                               ; preds = %60
  %66 = load i32, ptr %7, align 4, !tbaa !36
  %67 = sitofp i32 %66 to double
  %68 = fmul nsz double 0x401921FB54442D18, %67
  %69 = load ptr, ptr %6, align 8, !tbaa !22
  %70 = getelementptr inbounds nuw %struct.ShowSpectrumContext, ptr %69, i32 0, i32 8
  %71 = load i32, ptr %70, align 8, !tbaa !37
  %72 = sitofp i32 %71 to double
  %73 = fdiv nsz double %68, %72
  %74 = load ptr, ptr %6, align 8, !tbaa !22
  %75 = getelementptr inbounds nuw %struct.ShowSpectrumContext, ptr %74, i32 0, i32 18
  %76 = load float, ptr %75, align 8, !tbaa !199
  %77 = fpext nsz float %76 to double
  %78 = call nsz double @llvm.fmuladd.f64(double 0x400921FB54442D18, double %77, double %73)
  %79 = fptrunc nsz double %78 to float
  %80 = call nsz float @llvm.sin.f32(float %79)
  %81 = fmul nsz float 5.000000e-01, %80
  %82 = load ptr, ptr %9, align 8, !tbaa !128
  %83 = load float, ptr %82, align 4, !tbaa !126
  %84 = fmul nsz float %83, %81
  store float %84, ptr %82, align 4, !tbaa !126
  %85 = load i32, ptr %7, align 4, !tbaa !36
  %86 = sitofp i32 %85 to double
  %87 = fmul nsz double 0x401921FB54442D18, %86
  %88 = load ptr, ptr %6, align 8, !tbaa !22
  %89 = getelementptr inbounds nuw %struct.ShowSpectrumContext, ptr %88, i32 0, i32 8
  %90 = load i32, ptr %89, align 8, !tbaa !37
  %91 = sitofp i32 %90 to double
  %92 = fdiv nsz double %87, %91
  %93 = load ptr, ptr %6, align 8, !tbaa !22
  %94 = getelementptr inbounds nuw %struct.ShowSpectrumContext, ptr %93, i32 0, i32 18
  %95 = load float, ptr %94, align 8, !tbaa !199
  %96 = fpext nsz float %95 to double
  %97 = call nsz double @llvm.fmuladd.f64(double 0x400921FB54442D18, double %96, double %92)
  %98 = fptrunc nsz double %97 to float
  %99 = call nsz float @llvm.cos.f32(float %98)
  %100 = fmul nsz float 5.000000e-01, %99
  %101 = load ptr, ptr %10, align 8, !tbaa !128
  %102 = load float, ptr %101, align 4, !tbaa !126
  %103 = fmul nsz float %102, %100
  store float %103, ptr %101, align 4, !tbaa !126
  br label %127

104:                                              ; preds = %60
  %105 = load ptr, ptr %6, align 8, !tbaa !22
  %106 = getelementptr inbounds nuw %struct.ShowSpectrumContext, ptr %105, i32 0, i32 18
  %107 = load float, ptr %106, align 8, !tbaa !199
  %108 = fpext nsz float %107 to double
  %109 = fmul nsz double 0x400921FB54442D18, %108
  %110 = fptrunc nsz double %109 to float
  %111 = call nsz float @llvm.sin.f32(float %110)
  %112 = fmul nsz float 5.000000e-01, %111
  %113 = load ptr, ptr %9, align 8, !tbaa !128
  %114 = load float, ptr %113, align 4, !tbaa !126
  %115 = fmul nsz float %114, %112
  store float %115, ptr %113, align 4, !tbaa !126
  %116 = load ptr, ptr %6, align 8, !tbaa !22
  %117 = getelementptr inbounds nuw %struct.ShowSpectrumContext, ptr %116, i32 0, i32 18
  %118 = load float, ptr %117, align 8, !tbaa !199
  %119 = fpext nsz float %118 to double
  %120 = call nsz double @llvm.fmuladd.f64(double 0x400921FB54442D18, double %119, double 0x3FF921FB54442D18)
  %121 = fptrunc nsz double %120 to float
  %122 = call nsz float @llvm.cos.f32(float %121)
  %123 = fmul nsz float 5.000000e-01, %122
  %124 = load ptr, ptr %10, align 8, !tbaa !128
  %125 = load float, ptr %124, align 4, !tbaa !126
  %126 = fmul nsz float %125, %123
  store float %126, ptr %124, align 4, !tbaa !126
  br label %127

127:                                              ; preds = %104, %65
  br label %153

128:                                              ; preds = %55
  %129 = load ptr, ptr %9, align 8, !tbaa !128
  %130 = load float, ptr %129, align 4, !tbaa !126
  %131 = load ptr, ptr %6, align 8, !tbaa !22
  %132 = getelementptr inbounds nuw %struct.ShowSpectrumContext, ptr %131, i32 0, i32 18
  %133 = load float, ptr %132, align 8, !tbaa !199
  %134 = fpext nsz float %133 to double
  %135 = fmul nsz double 0x400921FB54442D18, %134
  %136 = fptrunc nsz double %135 to float
  %137 = call nsz float @llvm.sin.f32(float %136)
  %138 = load ptr, ptr %9, align 8, !tbaa !128
  %139 = load float, ptr %138, align 4, !tbaa !126
  %140 = call nsz float @llvm.fmuladd.f32(float %130, float %137, float %139)
  store float %140, ptr %138, align 4, !tbaa !126
  %141 = load ptr, ptr %10, align 8, !tbaa !128
  %142 = load float, ptr %141, align 4, !tbaa !126
  %143 = load ptr, ptr %6, align 8, !tbaa !22
  %144 = getelementptr inbounds nuw %struct.ShowSpectrumContext, ptr %143, i32 0, i32 18
  %145 = load float, ptr %144, align 8, !tbaa !199
  %146 = fpext nsz float %145 to double
  %147 = call nsz double @llvm.fmuladd.f64(double 0x400921FB54442D18, double %146, double 0x3FF921FB54442D18)
  %148 = fptrunc nsz double %147 to float
  %149 = call nsz float @llvm.cos.f32(float %148)
  %150 = load ptr, ptr %10, align 8, !tbaa !128
  %151 = load float, ptr %150, align 4, !tbaa !126
  %152 = call nsz float @llvm.fmuladd.f32(float %142, float %149, float %151)
  store float %152, ptr %150, align 4, !tbaa !126
  br label %153

153:                                              ; preds = %128, %127
  %154 = load ptr, ptr %6, align 8, !tbaa !22
  %155 = getelementptr inbounds nuw %struct.ShowSpectrumContext, ptr %154, i32 0, i32 17
  %156 = load float, ptr %155, align 4, !tbaa !200
  %157 = load ptr, ptr %9, align 8, !tbaa !128
  %158 = load float, ptr %157, align 4, !tbaa !126
  %159 = fmul nsz float %158, %156
  store float %159, ptr %157, align 4, !tbaa !126
  %160 = load ptr, ptr %6, align 8, !tbaa !22
  %161 = getelementptr inbounds nuw %struct.ShowSpectrumContext, ptr %160, i32 0, i32 17
  %162 = load float, ptr %161, align 4, !tbaa !200
  %163 = load ptr, ptr %10, align 8, !tbaa !128
  %164 = load float, ptr %163, align 4, !tbaa !126
  %165 = fmul nsz float %164, %162
  store float %165, ptr %163, align 4, !tbaa !126
  ret void
}