; Function Attrs: nounwind uwtable
define internal fastcc void @color_range(ptr noundef readonly captures(none) %0, i32 noundef %1, ptr noundef nonnull captures(none) %2, ptr noundef nonnull captures(none) %3, ptr noundef nonnull captures(none) %4) unnamed_addr #1 {
  %6 = getelementptr inbounds nuw i8, ptr %0, i64 76
  %7 = load i32, ptr %6, align 4, !tbaa !106
  switch i32 %7, label %24 [
    i32 0, label %8
    i32 1, label %25
  ]

8:                                                ; preds = %5
  %9 = getelementptr inbounds nuw i8, ptr %0, i64 56
  %10 = load i32, ptr %9, align 8, !tbaa !32
  %11 = sitofp i32 %10 to float
  %12 = fdiv nsz float 2.560000e+02, %11
  store float %12, ptr %2, align 4, !tbaa !114
  %13 = getelementptr inbounds nuw i8, ptr %0, i64 80
  %14 = load i32, ptr %13, align 8, !tbaa !133
  switch i32 %14, label %23 [
    i32 2, label %.thread38
    i32 3, label %.thread38
    i32 4, label %.thread38
    i32 5, label %.thread38
    i32 6, label %.thread38
    i32 7, label %.thread38
    i32 8, label %.thread38
    i32 10, label %.thread38
    i32 11, label %.thread38
    i32 12, label %.thread38
    i32 13, label %.thread38
    i32 14, label %.thread38
    i32 9, label %.thread38
    i32 1, label %.thread38
    i32 0, label %.thread
  ]

.thread38:                                        ; preds = %8, %8, %8, %8, %8, %8, %8, %8, %8, %8, %8, %8, %8, %8
  store float %12, ptr %3, align 4, !tbaa !114
  %15 = load float, ptr %2, align 4, !tbaa !114
  store float %15, ptr %4, align 4, !tbaa !114
  br label %71

.thread:                                          ; preds = %8
  %16 = fpext nsz float %12 to double
  %17 = fmul nsz double %16, 0x400921FB54442D18
  %18 = fptrunc nsz double %17 to float
  store float %18, ptr %3, align 4, !tbaa !114
  %19 = load float, ptr %2, align 4, !tbaa !114
  %20 = fpext nsz float %19 to double
  %21 = fmul nsz double %20, 0x400921FB54442D18
  %22 = fptrunc nsz double %21 to float
  store float %22, ptr %4, align 4, !tbaa !114
  br label %27

23:                                               ; preds = %8
  tail call void (ptr, i32, ptr, ...) @av_log(ptr noundef null, i32 noundef 0, ptr noundef nonnull @.str.11, ptr noundef nonnull @.str.12, ptr noundef nonnull @.str.13, i32 noundef 577) #14
  tail call void @abort() #17
  unreachable

24:                                               ; preds = %5
  tail call void (ptr, i32, ptr, ...) @av_log(ptr noundef null, i32 noundef 0, ptr noundef nonnull @.str.11, ptr noundef nonnull @.str.12, ptr noundef nonnull @.str.13, i32 noundef 587) #14
  tail call void @abort() #17
  unreachable

25:                                               ; preds = %5
  store float 2.560000e+02, ptr %2, align 4, !tbaa !114
  store float 2.560000e+02, ptr %3, align 4, !tbaa !114
  store float 2.560000e+02, ptr %4, align 4, !tbaa !114
  %.phi.trans.insert = getelementptr inbounds nuw i8, ptr %0, i64 80
  %.pre = load i32, ptr %.phi.trans.insert, align 8, !tbaa !133
  %26 = icmp eq i32 %.pre, 0
  br i1 %26, label %27, label %71

27:                                               ; preds = %.thread, %25
  %28 = getelementptr inbounds nuw i8, ptr %0, i64 56
  %29 = load i32, ptr %28, align 8, !tbaa !32
  %30 = icmp sgt i32 %29, 1
  br i1 %30, label %31, label %53

31:                                               ; preds = %27
  %32 = sitofp i32 %1 to double
  %33 = fmul nsz double %32, 0x401921FB54442D18
  %34 = uitofp nneg i32 %29 to double
  %35 = fdiv nsz double %33, %34
  %36 = getelementptr inbounds nuw i8, ptr %0, i64 96
  %37 = load float, ptr %36, align 8, !tbaa !192
  %38 = fpext nsz float %37 to double
  %39 = tail call nsz double @llvm.fmuladd.f64(double %38, double 0x400921FB54442D18, double %35)
  %40 = fptrunc nsz double %39 to float
  %41 = tail call nsz float @llvm.sin.f32(float %40)
  %42 = fmul nsz float %41, 5.000000e-01
  %43 = load float, ptr %3, align 4, !tbaa !114
  %44 = fmul nsz float %43, %42
  store float %44, ptr %3, align 4, !tbaa !114
  %45 = load float, ptr %36, align 8, !tbaa !192
  %46 = fpext nsz float %45 to double
  %47 = tail call nsz double @llvm.fmuladd.f64(double %46, double 0x400921FB54442D18, double %35)
  %48 = fptrunc nsz double %47 to float
  %49 = tail call nsz float @llvm.cos.f32(float %48)
  %50 = fmul nsz float %49, 5.000000e-01
  %51 = load float, ptr %4, align 4, !tbaa !114
  %52 = fmul nsz float %51, %50
  br label %87

53:                                               ; preds = %27
  %54 = getelementptr inbounds nuw i8, ptr %0, i64 96
  %55 = load float, ptr %54, align 8, !tbaa !192
  %56 = fpext nsz float %55 to double
  %57 = fmul nsz double %56, 0x400921FB54442D18
  %58 = fptrunc nsz double %57 to float
  %59 = tail call nsz float @llvm.sin.f32(float %58)
  %60 = fmul nsz float %59, 5.000000e-01
  %61 = load float, ptr %3, align 4, !tbaa !114
  %62 = fmul nsz float %61, %60
  store float %62, ptr %3, align 4, !tbaa !114
  %63 = load float, ptr %54, align 8, !tbaa !192
  %64 = fpext nsz float %63 to double
  %65 = tail call nsz double @llvm.fmuladd.f64(double %64, double 0x400921FB54442D18, double 0x3FF921FB54442D18)
  %66 = fptrunc nsz double %65 to float
  %67 = tail call nsz float @llvm.cos.f32(float %66)
  %68 = fmul nsz float %67, 5.000000e-01
  %69 = load float, ptr %4, align 4, !tbaa !114
  %70 = fmul nsz float %69, %68
  br label %87

71:                                               ; preds = %.thread38, %25
  %72 = load float, ptr %3, align 4, !tbaa !114
  %73 = getelementptr inbounds nuw i8, ptr %0, i64 96
  %74 = load float, ptr %73, align 8, !tbaa !192
  %75 = fpext nsz float %74 to double
  %76 = fmul nsz double %75, 0x400921FB54442D18
  %77 = fptrunc nsz double %76 to float
  %78 = tail call nsz float @llvm.sin.f32(float %77)
  %79 = tail call nsz float @llvm.fmuladd.f32(float %72, float %78, float %72)
  store float %79, ptr %3, align 4, !tbaa !114
  %80 = load float, ptr %4, align 4, !tbaa !114
  %81 = load float, ptr %73, align 8, !tbaa !192
  %82 = fpext nsz float %81 to double
  %83 = tail call nsz double @llvm.fmuladd.f64(double %82, double 0x400921FB54442D18, double 0x3FF921FB54442D18)
  %84 = fptrunc nsz double %83 to float
  %85 = tail call nsz float @llvm.cos.f32(float %84)
  %86 = tail call nsz float @llvm.fmuladd.f32(float %80, float %85, float %80)
  br label %87

87:                                               ; preds = %31, %53, %71
  %.sink = phi float [ %52, %31 ], [ %70, %53 ], [ %86, %71 ]
  store float %.sink, ptr %4, align 4, !tbaa !114
  %88 = getelementptr inbounds nuw i8, ptr %0, i64 92
  %89 = load float, ptr %88, align 4, !tbaa !193
  %90 = load float, ptr %3, align 4, !tbaa !114
  %91 = fmul nsz float %89, %90
  store float %91, ptr %3, align 4, !tbaa !114
  %92 = load float, ptr %88, align 4, !tbaa !193
  %93 = load float, ptr %4, align 4, !tbaa !114
  %94 = fmul nsz float %92, %93
  store float %94, ptr %4, align 4, !tbaa !114
  ret void
}